target datalayout = "e-m:e-p270:32:32-p271:32:32-p272:64:64-i64:64-i128:128-f80:128-n8:16:32:64-S128"
target triple = "x86_64-pc-linux-gnu"

%"class.std::unique_ptr" = type { %"struct.std::__uniq_ptr_data" }
%"struct.std::__uniq_ptr_data" = type { %"class.std::__uniq_ptr_impl" }
%"class.std::__uniq_ptr_impl" = type { %"class.std::tuple" }
%"class.std::tuple" = type { %"struct.std::_Tuple_impl" }
%"struct.std::_Tuple_impl" = type { %"struct.std::_Head_base.2" }
%"struct.std::_Head_base.2" = type { ptr }
%"class.g2o::csparse::CSparse" = type { %"class.std::unique_ptr" }
%"class.g2o::csparse::CSparse::Impl" = type { ptr, i32, ptr, ptr, ptr, %"struct.g2o::csparse::CSparseExt" }
%"struct.g2o::csparse::CSparseExt" = type <{ %struct.cs_di_sparse, i32, [4 x i8] }>
%struct.cs_di_sparse = type { i32, i32, i32, ptr, ptr, ptr, i32 }
%"struct.g2o::csparse::CSparse::SparseView" = type { ptr, ptr, ptr, ptr, ptr, ptr, ptr }

; Function Attrs: mustprogress nounwind uwtable
define linkonce_odr noundef nonnull align 8 dereferenceable(8) ptr @_ZNSt10_Head_baseILm0EPN3g2o7csparse7CSparse4ImplELb0EE7_M_headERKS5_(ptr noundef nonnull align 8 dereferenceable(8) %0) #1 comdat align 2 {
  %2 = alloca ptr, align 8
  store ptr %0, ptr %2, align 8, !tbaa !116
  %3 = load ptr, ptr %2, align 8, !tbaa !116
  %4 = getelementptr inbounds nuw %"struct.std::_Head_base.2", ptr %3, i32 0, i32 0
  ret ptr %4
}

; Function Attrs: mustprogress nounwind uwtable
define linkonce_odr noundef nonnull align 8 dereferenceable(8) ptr @_ZNSt11_Tuple_implILm0EJPN3g2o7csparse7CSparse4ImplESt14default_deleteIS3_EEE7_M_headERKS7_(ptr noundef nonnull align 8 dereferenceable(8) %0) #1 comdat align 2 {
  %2 = alloca ptr, align 8
  store ptr %0, ptr %2, align 8, !tbaa !112
  %3 = load ptr, ptr %2, align 8, !tbaa !112
  %4 = call noundef nonnull align 8 dereferenceable(8) ptr @_ZNSt10_Head_baseILm0EPN3g2o7csparse7CSparse4ImplELb0EE7_M_headERKS5_(ptr noundef nonnull align 8 dereferenceable(8) %3) #20
  ret ptr %4
}

; Function Attrs: mustprogress nounwind uwtable
define linkonce_odr noundef nonnull align 8 dereferenceable(8) ptr @_ZSt12__get_helperILm0EPN3g2o7csparse7CSparse4ImplEJSt14default_deleteIS3_EEERKT0_RKSt11_Tuple_implIXT_EJS7_DpT1_EE(ptr noundef nonnull align 8 dereferenceable(8) %0) #1 comdat {
  %2 = alloca ptr, align 8
  store ptr %0, ptr %2, align 8, !tbaa !112
  %3 = load ptr, ptr %2, align 8, !tbaa !112
  %4 = call noundef nonnull align 8 dereferenceable(8) ptr @_ZNSt11_Tuple_implILm0EJPN3g2o7csparse7CSparse4ImplESt14default_deleteIS3_EEE7_M_headERKS7_(ptr noundef nonnull align 8 dereferenceable(8) %3) #20
  ret ptr %4
}

; Function Attrs: mustprogress nounwind uwtable
define linkonce_odr noundef nonnull align 8 dereferenceable(8) ptr @_ZSt3getILm0EJPN3g2o7csparse7CSparse4ImplESt14default_deleteIS3_EEERKNSt13tuple_elementIXT_ESt5tupleIJDpT0_EEE4typeERKSB_(ptr noundef nonnull align 8 dereferenceable(8) %0) #1 comdat {
  %2 = alloca ptr, align 8
  store ptr %0, ptr %2, align 8, !tbaa !110
  %3 = load ptr, ptr %2, align 8, !tbaa !110
  %4 = call noundef nonnull align 8 dereferenceable(8) ptr @_ZSt12__get_helperILm0EPN3g2o7csparse7CSparse4ImplEJSt14default_deleteIS3_EEERKT0_RKSt11_Tuple_implIXT_EJS7_DpT1_EE(ptr noundef nonnull align 8 dereferenceable(8) %3) #20
  ret ptr %4
}

; Function Attrs: mustprogress nounwind uwtable
define linkonce_odr noundef ptr @_ZNKSt15__uniq_ptr_implIN3g2o7csparse7CSparse4ImplESt14default_deleteIS3_EE6_M_ptrEv(ptr noundef nonnull align 8 dereferenceable(8) %0) #1 comdat align 2 {
  %2 = alloca ptr, align 8
  store ptr %0, ptr %2, align 8, !tbaa !108
  %3 = load ptr, ptr %2, align 8
  %4 = getelementptr inbounds nuw %"class.std::__uniq_ptr_impl", ptr %3, i32 0, i32 0
  %5 = call noundef nonnull align 8 dereferenceable(8) ptr @_ZSt3getILm0EJPN3g2o7csparse7CSparse4ImplESt14default_deleteIS3_EEERKNSt13tuple_elementIXT_ESt5tupleIJDpT0_EEE4typeERKSB_(ptr noundef nonnull align 8 dereferenceable(8) %4) #20
  %6 = load ptr, ptr %5, align 8, !tbaa !20
  ret ptr %6
}

; Function Attrs: mustprogress nounwind uwtable
define linkonce_odr noundef ptr @_ZNKSt10unique_ptrIN3g2o7csparse7CSparse4ImplESt14default_deleteIS3_EE3getEv(ptr noundef nonnull align 8 dereferenceable(8) %0) #1 comdat align 2 {
  %2 = alloca ptr, align 8
  store ptr %0, ptr %2, align 8, !tbaa !16
  %3 = load ptr, ptr %2, align 8
  %4 = getelementptr inbounds nuw %"class.std::unique_ptr", ptr %3, i32 0, i32 0
  %5 = call noundef ptr @_ZNKSt15__uniq_ptr_implIN3g2o7csparse7CSparse4ImplESt14default_deleteIS3_EE6_M_ptrEv(ptr noundef nonnull align 8 dereferenceable(8) %4) #20
  ret ptr %5
}

; Function Attrs: mustprogress nounwind uwtable
define linkonce_odr void @_ZN3g2o7csparse7CSparse10SparseViewC2ERiS3_S3_RPiS5_RPdS3_(ptr noundef nonnull align 8 dereferenceable(56) %0, ptr noundef nonnull align 4 dereferenceable(4) %1, ptr noundef nonnull align 4 dereferenceable(4) %2, ptr noundef nonnull align 4 dereferenceable(4) %3, ptr noundef nonnull align 8 dereferenceable(8) %4, ptr noundef nonnull align 8 dereferenceable(8) %5, ptr noundef nonnull align 8 dereferenceable(8) %6, ptr noundef nonnull align 4 dereferenceable(4) %7) unnamed_addr #1 comdat align 2 {
  %9 = alloca ptr, align 8
  %10 = alloca ptr, align 8
  %11 = alloca ptr, align 8
  %12 = alloca ptr, align 8
  %13 = alloca ptr, align 8
  %14 = alloca ptr, align 8
  %15 = alloca ptr, align 8
  %16 = alloca ptr, align 8
  store ptr %0, ptr %9, align 8, !tbaa !31
  store ptr %1, ptr %10, align 8, !tbaa !46
  store ptr %2, ptr %11, align 8, !tbaa !46
  store ptr %3, ptr %12, align 8, !tbaa !46
  store ptr %4, ptr %13, align 8, !tbaa !66
  store ptr %5, ptr %14, align 8, !tbaa !66
  store ptr %6, ptr %15, align 8, !tbaa !67
  store ptr %7, ptr %16, align 8, !tbaa !46
  %17 = load ptr, ptr %9, align 8
  %18 = getelementptr inbounds nuw %"struct.g2o::csparse::CSparse::SparseView", ptr %17, i32 0, i32 0
  %19 = load ptr, ptr %10, align 8, !tbaa !46
  store ptr %19, ptr %18, align 8, !tbaa !46
  %20 = getelementptr inbounds nuw %"struct.g2o::csparse::CSparse::SparseView", ptr %17, i32 0, i32 1
  %21 = load ptr, ptr %11, align 8, !tbaa !46
  store ptr %21, ptr %20, align 8, !tbaa !46
  %22 = getelementptr inbounds nuw %"struct.g2o::csparse::CSparse::SparseView", ptr %17, i32 0, i32 2
  %23 = load ptr, ptr %12, align 8, !tbaa !46
  store ptr %23, ptr %22, align 8, !tbaa !46
  %24 = getelementptr inbounds nuw %"struct.g2o::csparse::CSparse::SparseView", ptr %17, i32 0, i32 3
  %25 = load ptr, ptr %13, align 8, !tbaa !66
  store ptr %25, ptr %24, align 8, !tbaa !66
  %26 = getelementptr inbounds nuw %"struct.g2o::csparse::CSparse::SparseView", ptr %17, i32 0, i32 4
  %27 = load ptr, ptr %14, align 8, !tbaa !66
  store ptr %27, ptr %26, align 8, !tbaa !66
  %28 = getelementptr inbounds nuw %"struct.g2o::csparse::CSparse::SparseView", ptr %17, i32 0, i32 5
  %29 = load ptr, ptr %15, align 8, !tbaa !67
  store ptr %29, ptr %28, align 8, !tbaa !67
  %30 = getelementptr inbounds nuw %"struct.g2o::csparse::CSparse::SparseView", ptr %17, i32 0, i32 6
  %31 = load ptr, ptr %16, align 8, !tbaa !46
  store ptr %31, ptr %30, align 8, !tbaa !46
  ret void
}

; Function Attrs: mustprogress nounwind uwtable
define linkonce_odr noundef ptr @_ZNKSt10unique_ptrIN3g2o7csparse7CSparse4ImplESt14default_deleteIS3_EEptEv(ptr noundef nonnull align 8 dereferenceable(8) %0) #1 comdat align 2 {
  %2 = alloca ptr, align 8
  store ptr %0, ptr %2, align 8, !tbaa !16
  %3 = load ptr, ptr %2, align 8
  %4 = call noundef ptr @_ZNKSt10unique_ptrIN3g2o7csparse7CSparse4ImplESt14default_deleteIS3_EE3getEv(ptr noundef nonnull align 8 dereferenceable(8) %3) #20
  ret ptr %4
}

; Function Attrs: mustprogress uwtable
define void @_ZN3g2o7csparse7CSparse10sparseViewEv(ptr dead_on_unwind noalias writable sret(%"struct.g2o::csparse::CSparse::SparseView") align 8 %0, ptr noundef nonnull align 8 dereferenceable(8) %1) #3 align 2 {
  %3 = alloca ptr, align 8
  %4 = alloca ptr, align 8
  store ptr %1, ptr %3, align 8, !tbaa !14
  %5 = load ptr, ptr %3, align 8
  call void @llvm.lifetime.start.p0(i64 8, ptr %4) #20
  %6 = getelementptr inbounds nuw %"class.g2o::csparse::CSparse", ptr %5, i32 0, i32 0
  %7 = call noundef ptr @_ZNKSt10unique_ptrIN3g2o7csparse7CSparse4ImplESt14default_deleteIS3_EEptEv(ptr noundef nonnull align 8 dereferenceable(8) %6) #20
  %8 = getelementptr inbounds nuw %"class.g2o::csparse::CSparse::Impl", ptr %7, i32 0, i32 5
  store ptr %8, ptr %4, align 8, !tbaa !64
  %9 = load ptr, ptr %4, align 8, !tbaa !64
  %10 = getelementptr inbounds nuw %struct.cs_di_sparse, ptr %9, i32 0, i32 1
  %11 = load ptr, ptr %4, align 8, !tbaa !64
  %12 = getelementptr inbounds nuw %struct.cs_di_sparse, ptr %11, i32 0, i32 2
  %13 = load ptr, ptr %4, align 8, !tbaa !64
  %14 = getelementptr inbounds nuw %struct.cs_di_sparse, ptr %13, i32 0, i32 0
  %15 = load ptr, ptr %4, align 8, !tbaa !64
  %16 = getelementptr inbounds nuw %struct.cs_di_sparse, ptr %15, i32 0, i32 3
  %17 = load ptr, ptr %4, align 8, !tbaa !64
  %18 = getelementptr inbounds nuw %struct.cs_di_sparse, ptr %17, i32 0, i32 4
  %19 = load ptr, ptr %4, align 8, !tbaa !64
  %20 = getelementptr inbounds nuw %struct.cs_di_sparse, ptr %19, i32 0, i32 5
  %21 = load ptr, ptr %4, align 8, !tbaa !64
  %22 = getelementptr inbounds nuw %"struct.g2o::csparse::CSparseExt", ptr %21, i32 0, i32 1
  call void @_ZN3g2o7csparse7CSparse10SparseViewC2ERiS3_S3_RPiS5_RPdS3_(ptr noundef nonnull align 8 dereferenceable(56) %0, ptr noundef nonnull align 4 dereferenceable(4) %10, ptr noundef nonnull align 4 dereferenceable(4) %12, ptr noundef nonnull align 4 dereferenceable(4) %14, ptr noundef nonnull align 8 dereferenceable(8) %16, ptr noundef nonnull align 8 dereferenceable(8) %18, ptr noundef nonnull align 8 dereferenceable(8) %20, ptr noundef nonnull align 4 dereferenceable(4) %22)
  call void @llvm.lifetime.end.p0(i64 8, ptr %4) #20
  ret void
}